target datalayout = "e-m:e-p270:32:32-p271:32:32-p272:64:64-i64:64-i128:128-f80:128-n8:16:32:64-S128"
target triple = "x86_64-pc-linux-gnu"

%struct.dt_masks_form_t = type { ptr, i32, ptr, [2 x float], [128 x i8], i32, i32 }
%struct.dt_masks_form_gui_t = type { ptr, ptr, ptr, i32, float, float, float, float, float, float, float, float, i32, i32, i32, i32, i32, i32, i32, i32, i32, i32, i32, i32, i32, i32, i32, i32, i32, i32, i32, i32, i32, i32, float, float, i32, i32, i32, i32, i32, i32, ptr, ptr, i32, i32, i64 }

@.str.11 = private unnamed_addr constant [85 x i8] c"<b>add node</b>: click, <b>add sharp node</b>: ctrl+click\0A<b>cancel</b>: right-click\00", align 1
@.str.12 = private unnamed_addr constant [90 x i8] c"<b>add node</b>: click, <b>add sharp node</b>: ctrl+click\0A<b>finish path</b>: right-click\00", align 1
@.str.13 = private unnamed_addr constant [100 x i8] c"<b>move node</b>: drag, <b>remove node</b>: right-click\0A<b>switch smooth/sharp mode</b>: ctrl+click\00", align 1
@.str.14 = private unnamed_addr constant [138 x i8] c"<b>node curvature</b>: drag, <b>force symmetry</b>: ctrl+drag,\0A<b>move single handle</b>: shift+drag, <b>reset curvature</b>: right-click\00", align 1
@.str.15 = private unnamed_addr constant [87 x i8] c"<b>move segment</b>: drag, <b>add node</b>: ctrl+click\0A<b>remove path</b>: right-click\00", align 1
@.str.16 = private unnamed_addr constant [90 x i8] c"<b>size</b>: scroll, <b>feather size</b>: shift+scroll\0A<b>opacity</b>: ctrl+scroll (%d%%)\00", align 1

; Function Attrs: nounwind uwtable
define internal void @_path_set_hint_message(ptr noundef %0, ptr noundef %1, i32 noundef %2, ptr noalias noundef %3, i64 noundef %4) #0 {
  %6 = alloca ptr, align 8
  %7 = alloca ptr, align 8
  %8 = alloca i32, align 4
  %9 = alloca ptr, align 8
  %10 = alloca i64, align 8
  store ptr %0, ptr %6, align 8, !tbaa !23
  store ptr %1, ptr %7, align 8, !tbaa !17
  store i32 %2, ptr %8, align 4, !tbaa !13
  store ptr %3, ptr %9, align 8, !tbaa !25
  store i64 %4, ptr %10, align 8, !tbaa !21
  %11 = load ptr, ptr %6, align 8, !tbaa !23
  %12 = getelementptr inbounds nuw %struct.dt_masks_form_gui_t, ptr %11, i32 0, i32 39
  %13 = load i32, ptr %12, align 8, !tbaa !27
  %14 = icmp ne i32 %13, 0
  br i1 %14, label %15, label %26

15:                                               ; preds = %5
  %16 = load ptr, ptr %7, align 8, !tbaa !17
  %17 = getelementptr inbounds nuw %struct.dt_masks_form_t, ptr %16, i32 0, i32 0
  %18 = load ptr, ptr %17, align 8, !tbaa !32
  %19 = call i32 @g_list_length(ptr noundef %18)
  %20 = icmp ult i32 %19, 4
  br i1 %20, label %21, label %26

21:                                               ; preds = %15
  %22 = load ptr, ptr %9, align 8, !tbaa !25
  %23 = call ptr @dcgettext(ptr noundef null, ptr noundef @.str.11, i32 noundef 5) #13
  %24 = load i64, ptr %10, align 8, !tbaa !21
  %25 = call i64 @g_strlcat(ptr noundef %22, ptr noundef %23, i64 noundef %24)
  br label %82

26:                                               ; preds = %15, %5
  %27 = load ptr, ptr %6, align 8, !tbaa !23
  %28 = getelementptr inbounds nuw %struct.dt_masks_form_gui_t, ptr %27, i32 0, i32 39
  %29 = load i32, ptr %28, align 8, !tbaa !27
  %30 = icmp ne i32 %29, 0
  br i1 %30, label %31, label %36

31:                                               ; preds = %26
  %32 = load ptr, ptr %9, align 8, !tbaa !25
  %33 = call ptr @dcgettext(ptr noundef null, ptr noundef @.str.12, i32 noundef 5) #13
  %34 = load i64, ptr %10, align 8, !tbaa !21
  %35 = call i64 @g_strlcat(ptr noundef %32, ptr noundef %33, i64 noundef %34)
  br label %81

36:                                               ; preds = %26
  %37 = load ptr, ptr %6, align 8, !tbaa !23
  %38 = getelementptr inbounds nuw %struct.dt_masks_form_gui_t, ptr %37, i32 0, i32 17
  %39 = load i32, ptr %38, align 8, !tbaa !35
  %40 = icmp sge i32 %39, 0
  br i1 %40, label %41, label %46

41:                                               ; preds = %36
  %42 = load ptr, ptr %9, align 8, !tbaa !25
  %43 = call ptr @dcgettext(ptr noundef null, ptr noundef @.str.13, i32 noundef 5) #13
  %44 = load i64, ptr %10, align 8, !tbaa !21
  %45 = call i64 @g_strlcat(ptr noundef %42, ptr noundef %43, i64 noundef %44)
  br label %80

46:                                               ; preds = %36
  %47 = load ptr, ptr %6, align 8, !tbaa !23
  %48 = getelementptr inbounds nuw %struct.dt_masks_form_gui_t, ptr %47, i32 0, i32 19
  %49 = load i32, ptr %48, align 8, !tbaa !36
  %50 = icmp sge i32 %49, 0
  br i1 %50, label %51, label %56

51:                                               ; preds = %46
  %52 = load ptr, ptr %9, align 8, !tbaa !25
  %53 = call ptr @dcgettext(ptr noundef null, ptr noundef @.str.14, i32 noundef 5) #13
  %54 = load i64, ptr %10, align 8, !tbaa !21
  %55 = call i64 @g_strlcat(ptr noundef %52, ptr noundef %53, i64 noundef %54)
  br label %79

56:                                               ; preds = %46
  %57 = load ptr, ptr %6, align 8, !tbaa !23
  %58 = getelementptr inbounds nuw %struct.dt_masks_form_gui_t, ptr %57, i32 0, i32 21
  %59 = load i32, ptr %58, align 8, !tbaa !37
  %60 = icmp sge i32 %59, 0
  br i1 %60, label %61, label %66

61:                                               ; preds = %56
  %62 = load ptr, ptr %9, align 8, !tbaa !25
  %63 = call ptr @dcgettext(ptr noundef null, ptr noundef @.str.15, i32 noundef 5) #13
  %64 = load i64, ptr %10, align 8, !tbaa !21
  %65 = call i64 @g_strlcat(ptr noundef %62, ptr noundef %63, i64 noundef %64)
  br label %78

66:                                               ; preds = %56
  %67 = load ptr, ptr %6, align 8, !tbaa !23
  %68 = getelementptr inbounds nuw %struct.dt_masks_form_gui_t, ptr %67, i32 0, i32 12
  %69 = load i32, ptr %68, align 4, !tbaa !38
  %70 = icmp ne i32 %69, 0
  br i1 %70, label %71, label %77

71:                                               ; preds = %66
  %72 = load ptr, ptr %9, align 8, !tbaa !25
  %73 = load i64, ptr %10, align 8, !tbaa !21
  %74 = call ptr @dcgettext(ptr noundef null, ptr noundef @.str.16, i32 noundef 5) #13
  %75 = load i32, ptr %8, align 4, !tbaa !13
  %76 = call i32 (ptr, i64, ptr, ...) @g_snprintf(ptr noundef %72, i64 noundef %73, ptr noundef %74, i32 noundef %75)
  br label %77

77:                                               ; preds = %71, %66
  br label %78

78:                                               ; preds = %77, %61
  br label %79

79:                                               ; preds = %78, %51
  br label %80

80:                                               ; preds = %79, %41
  br label %81

81:                                               ; preds = %80, %31
  br label %82

82:                                               ; preds = %81, %21
  ret void
}