; Function Attrs: nounwind uwtable
define internal void @_path_set_hint_message(ptr noundef readonly captures(none) %0, ptr noundef readonly captures(none) %1, i32 noundef %2, ptr noalias noundef %3, i64 noundef %4) #3 {
  %6 = getelementptr inbounds nuw i8, ptr %0, i64 168
  %7 = load i32, ptr %6, align 8, !tbaa !10
  %.not = icmp eq i32 %7, 0
  br i1 %.not, label %.thread, label %8

8:                                                ; preds = %5
  %9 = load ptr, ptr %1, align 8, !tbaa !18
  %10 = tail call i32 @g_list_length(ptr noundef %9) #21
  %11 = icmp ult i32 %10, 4
  br i1 %11, label %12, label %15

12:                                               ; preds = %8
  %13 = tail call ptr @dcgettext(ptr noundef null, ptr noundef nonnull @.str.11, i32 noundef 5) #21
  %14 = tail call i64 @g_strlcat(ptr noundef %3, ptr noundef %13, i64 noundef %4) #21
  br label %45

15:                                               ; preds = %8
  %.pr = load i32, ptr %6, align 8, !tbaa !10
  %.not19 = icmp eq i32 %.pr, 0
  br i1 %.not19, label %.thread, label %16

16:                                               ; preds = %15
  %17 = tail call ptr @dcgettext(ptr noundef null, ptr noundef nonnull @.str.12, i32 noundef 5) #21
  %18 = tail call i64 @g_strlcat(ptr noundef %3, ptr noundef %17, i64 noundef %4) #21
  br label %45

.thread:                                          ; preds = %5, %15
  %19 = getelementptr inbounds nuw i8, ptr %0, i64 80
  %20 = load i32, ptr %19, align 8, !tbaa !21
  %21 = icmp sgt i32 %20, -1
  br i1 %21, label %22, label %25

22:                                               ; preds = %.thread
  %23 = tail call ptr @dcgettext(ptr noundef null, ptr noundef nonnull @.str.13, i32 noundef 5) #21
  %24 = tail call i64 @g_strlcat(ptr noundef %3, ptr noundef %23, i64 noundef %4) #21
  br label %45

25:                                               ; preds = %.thread
  %26 = getelementptr inbounds nuw i8, ptr %0, i64 88
  %27 = load i32, ptr %26, align 8, !tbaa !22
  %28 = icmp sgt i32 %27, -1
  br i1 %28, label %29, label %32

29:                                               ; preds = %25
  %30 = tail call ptr @dcgettext(ptr noundef null, ptr noundef nonnull @.str.14, i32 noundef 5) #21
  %31 = tail call i64 @g_strlcat(ptr noundef %3, ptr noundef %30, i64 noundef %4) #21
  br label %45

32:                                               ; preds = %25
  %33 = getelementptr inbounds nuw i8, ptr %0, i64 96
  %34 = load i32, ptr %33, align 8, !tbaa !23
  %35 = icmp sgt i32 %34, -1
  br i1 %35, label %36, label %39

36:                                               ; preds = %32
  %37 = tail call ptr @dcgettext(ptr noundef null, ptr noundef nonnull @.str.15, i32 noundef 5) #21
  %38 = tail call i64 @g_strlcat(ptr noundef %3, ptr noundef %37, i64 noundef %4) #21
  br label %45

39:                                               ; preds = %32
  %40 = getelementptr inbounds nuw i8, ptr %0, i64 60
  %41 = load i32, ptr %40, align 4, !tbaa !24
  %.not20 = icmp eq i32 %41, 0
  br i1 %.not20, label %45, label %42

42:                                               ; preds = %39
  %43 = tail call ptr @dcgettext(ptr noundef null, ptr noundef nonnull @.str.16, i32 noundef 5) #21
  %44 = tail call i32 (ptr, i64, ptr, ...) @g_snprintf(ptr noundef %3, i64 noundef %4, ptr noundef %43, i32 noundef %2) #21
  br label %45

45:                                               ; preds = %16, %29, %39, %42, %36, %22, %12
  ret void
}